; Function Attrs: mustprogress nounwind uwtable
define void @_ZN3zmq7radio_tD2Ev(ptr noundef nonnull align 8 dereferenceable(1968) %this) unnamed_addr #2 align 2 personality ptr @__gxx_personality_v0 {
entry:
  %_dist = getelementptr inbounds i8, ptr %this, i64 1904
  tail call void @_ZN3zmq6dist_tD1Ev(ptr noundef nonnull align 8 dereferenceable(49) %_dist) #21
  %_udp_pipes = getelementptr inbounds i8, ptr %this, i64 1880
  %0 = load ptr, ptr %_udp_pipes, align 8
  %tobool.not.i.i.i = icmp eq ptr %0, null
  br i1 %tobool.not.i.i.i, label %_ZNSt6vectorIPN3zmq6pipe_tESaIS2_EED2Ev.exit, label %if.then.i.i.i

if.then.i.i.i:                                    ; preds = %entry
  tail call void @_ZdlPv(ptr noundef nonnull %0) #20
  br label %_ZNSt6vectorIPN3zmq6pipe_tESaIS2_EED2Ev.exit

_ZNSt6vectorIPN3zmq6pipe_tESaIS2_EED2Ev.exit:     ; preds = %entry, %if.then.i.i.i
  %_subscriptions = getelementptr inbounds i8, ptr %this, i64 1832
  %_M_parent.i.i.i.i = getelementptr inbounds i8, ptr %this, i64 1848
  %1 = load ptr, ptr %_M_parent.i.i.i.i, align 8
  invoke void @_ZNSt8_Rb_treeINSt7__cxx1112basic_stringIcSt11char_traitsIcESaIcEEESt4pairIKS5_PN3zmq6pipe_tEESt10_Select1stISB_ESt4lessIS5_ESaISB_EE8_M_eraseEPSt13_Rb_tree_nodeISB_E(ptr noundef nonnull align 8 dereferenceable(48) %_subscriptions, ptr noundef %1)
          to label %_ZNSt8multimapINSt7__cxx1112basic_stringIcSt11char_traitsIcESaIcEEEPN3zmq6pipe_tESt4lessIS5_ESaISt4pairIKS5_S8_EEED2Ev.exit unwind label %terminate.lpad.i.i

terminate.lpad.i.i:                               ; preds = %_ZNSt6vectorIPN3zmq6pipe_tESaIS2_EED2Ev.exit
  %2 = landingpad { ptr, i32 }
          catch ptr null
  %3 = extractvalue { ptr, i32 } %2, 0
  tail call void @__clang_call_terminate(ptr %3) #22
  unreachable

_ZNSt8multimapINSt7__cxx1112basic_stringIcSt11char_traitsIcESaIcEEEPN3zmq6pipe_tESt4lessIS5_ESaISt4pairIKS5_S8_EEED2Ev.exit: ; preds = %_ZNSt6vectorIPN3zmq6pipe_tESaIS2_EED2Ev.exit
  tail call void @_ZN3zmq13socket_base_tD2Ev(ptr noundef nonnull align 8 dereferenceable(1825) %this) #21
  ret void
}